; ModuleID = '46/2617.c'
source_filename = "46/2617.c"
target datalayout = "e-m:e-p270:32:32-p271:32:32-p272:64:64-i64:64-f80:128-n8:16:32:64-S128"
target triple = "x86_64-pc-linux-gnu"

@.str = private unnamed_addr constant [7 x i8] c"%d %d\0A\00", align 1
@.str.1 = private unnamed_addr constant [2 x i8] c"\0A\00", align 1
@.str.2 = private unnamed_addr constant [3 x i8] c"%d\00", align 1
@.str.3 = private unnamed_addr constant [4 x i8] c"%d\0A\00", align 1

; Function Attrs: noinline nounwind uwtable
define dso_local void @main() #0 {
  %1 = alloca [100 x [100 x i32]], align 16
  %2 = alloca [100 x [100 x i32]], align 16
  %3 = alloca i32, align 4
  %4 = alloca i32, align 4
  %5 = alloca i32, align 4
  %6 = alloca i32, align 4
  %7 = alloca i32, align 4
  %8 = alloca i32, align 4
  %9 = call i32 (i8*, ...) @__isoc99_scanf(i8* getelementptr inbounds ([7 x i8], [7 x i8]* @.str, i64 0, i64 0), i32* %3, i32* %4)
  store i32 0, i32* %5, align 4
  br label %10

10:                                               ; preds = %38, %0
  %11 = load i32, i32* %5, align 4
  %12 = load i32, i32* %3, align 4
  %13 = icmp slt i32 %11, %12
  br i1 %13, label %14, label %41

14:                                               ; preds = %10
  %15 = call i32 (i8*, ...) @__isoc99_scanf(i8* getelementptr inbounds ([2 x i8], [2 x i8]* @.str.1, i64 0, i64 0))
  store i32 0, i32* %6, align 4
  br label %16

16:                                               ; preds = %34, %14
  %17 = load i32, i32* %6, align 4
  %18 = load i32, i32* %4, align 4
  %19 = icmp slt i32 %17, %18
  br i1 %19, label %20, label %37

20:                                               ; preds = %16
  %21 = load i32, i32* %5, align 4
  %22 = sext i32 %21 to i64
  %23 = getelementptr inbounds [100 x [100 x i32]], [100 x [100 x i32]]* %1, i64 0, i64 %22
  %24 = load i32, i32* %6, align 4
  %25 = sext i32 %24 to i64
  %26 = getelementptr inbounds [100 x i32], [100 x i32]* %23, i64 0, i64 %25
  %27 = call i32 (i8*, ...) @__isoc99_scanf(i8* getelementptr inbounds ([3 x i8], [3 x i8]* @.str.2, i64 0, i64 0), i32* %26)
  %28 = load i32, i32* %5, align 4
  %29 = sext i32 %28 to i64
  %30 = getelementptr inbounds [100 x [100 x i32]], [100 x [100 x i32]]* %2, i64 0, i64 %29
  %31 = load i32, i32* %6, align 4
  %32 = sext i32 %31 to i64
  %33 = getelementptr inbounds [100 x i32], [100 x i32]* %30, i64 0, i64 %32
  store i32 1, i32* %33, align 4
  br label %34

34:                                               ; preds = %20
  %35 = load i32, i32* %6, align 4
  %36 = add nsw i32 %35, 1
  store i32 %36, i32* %6, align 4
  br label %16

37:                                               ; preds = %16
  br label %38

38:                                               ; preds = %37
  %39 = load i32, i32* %5, align 4
  %40 = add nsw i32 %39, 1
  store i32 %40, i32* %5, align 4
  br label %10

41:                                               ; preds = %10
  store i32 0, i32* %5, align 4
  store i32 0, i32* %6, align 4
  store i32 0, i32* %8, align 4
  store i32 1, i32* %7, align 4
  br label %42

42:                                               ; preds = %174, %41
  %43 = load i32, i32* %7, align 4
  %44 = load i32, i32* %3, align 4
  %45 = load i32, i32* %4, align 4
  %46 = mul nsw i32 %44, %45
  %47 = icmp sle i32 %43, %46
  br i1 %47, label %48, label %177

48:                                               ; preds = %42
  %49 = load i32, i32* %5, align 4
  %50 = sext i32 %49 to i64
  %51 = getelementptr inbounds [100 x [100 x i32]], [100 x [100 x i32]]* %1, i64 0, i64 %50
  %52 = load i32, i32* %6, align 4
  %53 = sext i32 %52 to i64
  %54 = getelementptr inbounds [100 x i32], [100 x i32]* %51, i64 0, i64 %53
  %55 = load i32, i32* %54, align 4
  %56 = call i32 (i8*, ...) @printf(i8* getelementptr inbounds ([4 x i8], [4 x i8]* @.str.3, i64 0, i64 0), i32 %55)
  %57 = load i32, i32* %5, align 4
  %58 = sext i32 %57 to i64
  %59 = getelementptr inbounds [100 x [100 x i32]], [100 x [100 x i32]]* %2, i64 0, i64 %58
  %60 = load i32, i32* %6, align 4
  %61 = sext i32 %60 to i64
  %62 = getelementptr inbounds [100 x i32], [100 x i32]* %59, i64 0, i64 %61
  store i32 0, i32* %62, align 4
  %63 = load i32, i32* %8, align 4
  %64 = icmp eq i32 %63, 0
  br i1 %64, label %65, label %137

65:                                               ; preds = %48
  %66 = load i32, i32* %6, align 4
  %67 = load i32, i32* %4, align 4
  %68 = sub nsw i32 %67, 1
  %69 = icmp slt i32 %66, %68
  br i1 %69, label %70, label %83

70:                                               ; preds = %65
  %71 = load i32, i32* %5, align 4
  %72 = sext i32 %71 to i64
  %73 = getelementptr inbounds [100 x [100 x i32]], [100 x [100 x i32]]* %2, i64 0, i64 %72
  %74 = load i32, i32* %6, align 4
  %75 = add nsw i32 %74, 1
  %76 = sext i32 %75 to i64
  %77 = getelementptr inbounds [100 x i32], [100 x i32]* %73, i64 0, i64 %76
  %78 = load i32, i32* %77, align 4
  %79 = icmp ne i32 %78, 0
  br i1 %79, label %80, label %83

80:                                               ; preds = %70
  %81 = load i32, i32* %6, align 4
  %82 = add nsw i32 %81, 1
  store i32 %82, i32* %6, align 4
  store i32 0, i32* %8, align 4
  br label %136

83:                                               ; preds = %70, %65
  %84 = load i32, i32* %5, align 4
  %85 = load i32, i32* %3, align 4
  %86 = sub nsw i32 %85, 1
  %87 = icmp slt i32 %84, %86
  br i1 %87, label %88, label %101

88:                                               ; preds = %83
  %89 = load i32, i32* %5, align 4
  %90 = add nsw i32 %89, 1
  %91 = sext i32 %90 to i64
  %92 = getelementptr inbounds [100 x [100 x i32]], [100 x [100 x i32]]* %2, i64 0, i64 %91
  %93 = load i32, i32* %6, align 4
  %94 = sext i32 %93 to i64
  %95 = getelementptr inbounds [100 x i32], [100 x i32]* %92, i64 0, i64 %94
  %96 = load i32, i32* %95, align 4
  %97 = icmp ne i32 %96, 0
  br i1 %97, label %98, label %101

98:                                               ; preds = %88
  %99 = load i32, i32* %5, align 4
  %100 = add nsw i32 %99, 1
  store i32 %100, i32* %5, align 4
  store i32 0, i32* %8, align 4
  br label %135

101:                                              ; preds = %88, %83
  %102 = load i32, i32* %6, align 4
  %103 = icmp sgt i32 %102, 0
  br i1 %103, label %104, label %117

104:                                              ; preds = %101
  %105 = load i32, i32* %5, align 4
  %106 = sext i32 %105 to i64
  %107 = getelementptr inbounds [100 x [100 x i32]], [100 x [100 x i32]]* %2, i64 0, i64 %106
  %108 = load i32, i32* %6, align 4
  %109 = sub nsw i32 %108, 1
  %110 = sext i32 %109 to i64
  %111 = getelementptr inbounds [100 x i32], [100 x i32]* %107, i64 0, i64 %110
  %112 = load i32, i32* %111, align 4
  %113 = icmp ne i32 %112, 0
  br i1 %113, label %114, label %117

114:                                              ; preds = %104
  %115 = load i32, i32* %6, align 4
  %116 = add nsw i32 %115, -1
  store i32 %116, i32* %6, align 4
  store i32 0, i32* %8, align 4
  br label %134

117:                                              ; preds = %104, %101
  %118 = load i32, i32* %5, align 4
  %119 = icmp sgt i32 %118, 0
  br i1 %119, label %120, label %133

120:                                              ; preds = %117
  %121 = load i32, i32* %5, align 4
  %122 = sub nsw i32 %121, 1
  %123 = sext i32 %122 to i64
  %124 = getelementptr inbounds [100 x [100 x i32]], [100 x [100 x i32]]* %2, i64 0, i64 %123
  %125 = load i32, i32* %6, align 4
  %126 = sext i32 %125 to i64
  %127 = getelementptr inbounds [100 x i32], [100 x i32]* %124, i64 0, i64 %126
  %128 = load i32, i32* %127, align 4
  %129 = icmp ne i32 %128, 0
  br i1 %129, label %130, label %133

130:                                              ; preds = %120
  %131 = load i32, i32* %5, align 4
  %132 = add nsw i32 %131, -1
  store i32 %132, i32* %5, align 4
  store i32 1, i32* %8, align 4
  br label %133

133:                                              ; preds = %130, %120, %117
  br label %134

134:                                              ; preds = %133, %114
  br label %135

135:                                              ; preds = %134, %98
  br label %136

136:                                              ; preds = %135, %80
  br label %173

137:                                              ; preds = %48
  %138 = load i32, i32* %5, align 4
  %139 = icmp sgt i32 %138, 0
  br i1 %139, label %140, label %153

140:                                              ; preds = %137
  %141 = load i32, i32* %5, align 4
  %142 = sub nsw i32 %141, 1
  %143 = sext i32 %142 to i64
  %144 = getelementptr inbounds [100 x [100 x i32]], [100 x [100 x i32]]* %2, i64 0, i64 %143
  %145 = load i32, i32* %6, align 4
  %146 = sext i32 %145 to i64
  %147 = getelementptr inbounds [100 x i32], [100 x i32]* %144, i64 0, i64 %146
  %148 = load i32, i32* %147, align 4
  %149 = icmp ne i32 %148, 0
  br i1 %149, label %150, label %153

150:                                              ; preds = %140
  %151 = load i32, i32* %5, align 4
  %152 = add nsw i32 %151, -1
  store i32 %152, i32* %5, align 4
  store i32 1, i32* %8, align 4
  br label %172

153:                                              ; preds = %140, %137
  %154 = load i32, i32* %6, align 4
  %155 = load i32, i32* %4, align 4
  %156 = sub nsw i32 %155, 1
  %157 = icmp slt i32 %154, %156
  br i1 %157, label %158, label %171

158:                                              ; preds = %153
  %159 = load i32, i32* %5, align 4
  %160 = sext i32 %159 to i64
  %161 = getelementptr inbounds [100 x [100 x i32]], [100 x [100 x i32]]* %2, i64 0, i64 %160
  %162 = load i32, i32* %6, align 4
  %163 = add nsw i32 %162, 1
  %164 = sext i32 %163 to i64
  %165 = getelementptr inbounds [100 x i32], [100 x i32]* %161, i64 0, i64 %164
  %166 = load i32, i32* %165, align 4
  %167 = icmp ne i32 %166, 0
  br i1 %167, label %168, label %171

168:                                              ; preds = %158
  %169 = load i32, i32* %6, align 4
  %170 = add nsw i32 %169, 1
  store i32 %170, i32* %6, align 4
  store i32 0, i32* %8, align 4
  br label %171

171:                                              ; preds = %168, %158, %153
  br label %172

172:                                              ; preds = %171, %150
  br label %173

173:                                              ; preds = %172, %136
  br label %174

174:                                              ; preds = %173
  %175 = load i32, i32* %7, align 4
  %176 = add nsw i32 %175, 1
  store i32 %176, i32* %7, align 4
  br label %42

177:                                              ; preds = %42
  ret void
}

declare dso_local i32 @__isoc99_scanf(i8*, ...) #1

declare dso_local i32 @printf(i8*, ...) #1


!llvm.module.flags = !{!0}
!llvm.ident = !{!1}

!0 = !{i32 1, !"wchar_size", i32 4}
!1 = !{!"clang version 10.0.0-4ubuntu1 "}
